(dp0
S'currentIndex'
p1
I0
sS'language'
p2
S''
p3
sS'programs'
p4
(lp5
(imotionProgram
motionProgram
p6
(dp7
S'program'
p8
(lp9
S'TEST PROGRAM'
p10
aS'0'
p11
ag11
ag11
aS'50'
p12
aS'1'
p13
ag11
aS'5'
p14
aS'0.5'
p15
asba(imotionProgram
motionProgram
p16
(dp17
S'program'
p18
(lp19
S'Default Program'
p20
aI90
aI0
aI0
aI50
aI1
aI25
aI5
aF0.5
asba(imotionProgram
motionProgram
p21
(dp22
g18
(lp23
S'76mm tool'
p24
aS'34.5'
p25
aS'13.5'
p26
aS'15.65'
p27
aS'15'
p28
aS'1'
p29
aS'46'
p30
aS'17'
p31
aS'0.5'
p32
asba(imotionProgram
motionProgram
p33
(dp34
S'program'
p35
(lp36
S'76 copy test'
p37
aS'75'
p38
aS'0'
p39
aS'15'
p40
aS'50'
p41
aS'0.5'
p42
aS'78'
p43
aS'45'
p44
aS'0.5'
p45
asba(imotionProgram
motionProgram
p46
(dp47
S'program'
p48
(lp49
S'extreme test'
p50
aS'5'
p51
ag51
aS'24'
p52
aS'75'
p53
aS'1'
p54
aS'50'
p55
aS'23'
p56
aS'0.15'
p57
asba(imotionProgram
motionProgram
p58
(dp59
S'program'
p60
(lp61
S'SOME OTHER'
p62
aS'50'
p63
aS'0'
p64
aS'15'
p65
aS'50'
p66
aS'0.5'
p67
aS'78'
p68
aS'20'
p69
aS'0.5'
p70
asba(imotionProgram
motionProgram
p71
(dp72
S'program'
p73
(lp74
S'NAME'
p75
aS'50'
p76
aS'0'
p77
aS'15'
p78
aS'50'
p79
aS'0.5'
p80
aS'78'
p81
aS'12'
p82
aS'0.5'
p83
asba(imotionProgram
motionProgram
p84
(dp85
S'program'
p86
(lp87
S'50.8TOOL'
p88
aS'0'
p89
ag89
ag89
ag89
aS'1'
p90
aS'100'
p91
aS'20'
p92
aS'0.5'
p93
asbas.