(dp0
S'currentIndex'
p1
I17
sS'language'
p2
S''
p3
sS'programs'
p4
(lp5
(imotionProgram
motionProgram
p6
(dp7
S'program'
p8
(lp9
S'TEST PROGRAM'
p10
aS'0'
p11
ag11
ag11
aS'50'
p12
aS'1'
p13
ag11
aS'5'
p14
aS'0.5'
p15
asba(imotionProgram
motionProgram
p16
(dp17
S'program'
p18
(lp19
S'Default Program'
p20
aI90
aI0
aI0
aI50
aI1
aI25
aI5
aF0.5
asba(imotionProgram
motionProgram
p21
(dp22
g18
(lp23
S'76mm tool'
p24
aS'34.5'
p25
aS'13.5'
p26
aS'15.65'
p27
aS'15'
p28
aS'1'
p29
aS'46'
p30
aS'17'
p31
aS'0.5'
p32
asba(imotionProgram
motionProgram
p33
(dp34
S'program'
p35
(lp36
S'76 copy test'
p37
aS'75'
p38
aS'0'
p39
aS'15'
p40
aS'50'
p41
aS'0.5'
p42
aS'78'
p43
aS'45'
p44
aS'0.5'
p45
asba(imotionProgram
motionProgram
p46
(dp47
S'program'
p48
(lp49
S'extreme test'
p50
aS'5'
p51
ag51
aS'24'
p52
aS'75'
p53
aS'1'
p54
aS'50'
p55
aS'23'
p56
aS'0.15'
p57
asba(imotionProgram
motionProgram
p58
(dp59
S'program'
p60
(lp61
S'SOME OTHER'
p62
aS'50'
p63
aS'0'
p64
aS'15'
p65
aS'50'
p66
aS'0.5'
p67
aS'78'
p68
aS'20'
p69
aS'0.5'
p70
asba(imotionProgram
motionProgram
p71
(dp72
S'program'
p73
(lp74
S'NAME'
p75
aS'50'
p76
aS'0'
p77
aS'15'
p78
aS'50'
p79
aS'0.5'
p80
aS'78'
p81
aS'12'
p82
aS'0.5'
p83
asba(imotionProgram
motionProgram
p84
(dp85
S'program'
p86
(lp87
S'50.8TOOL'
p88
aS'0'
p89
ag89
ag89
ag89
aS'1'
p90
aS'100'
p91
aS'20'
p92
aS'0.5'
p93
asba(imotionProgram
motionProgram
p94
(dp95
S'program'
p96
(lp97
S'TEST PROGRAM'
p98
ag89
ag89
ag89
aS'50'
p99
ag90
ag89
aS'5'
p100
aS'0.5'
p101
asba(imotionProgram
motionProgram
p102
(dp103
S'program'
p104
(lp105
S'50.8TOOL'
p106
aS'0'
p107
ag107
ag107
ag107
aS'1'
p108
aS'100'
p109
aS'20'
p110
aS'0.5'
p111
asba(imotionProgram
motionProgram
p112
(dp113
g104
(lp114
S'50.8TOOL'
p115
ag107
ag107
ag107
ag107
ag108
aS'100'
p116
aS'20'
p117
aS'0.5'
p118
asba(imotionProgram
motionProgram
p119
(dp120
g104
(lp121
S'50.8TOOL'
p122
ag107
ag107
ag107
ag107
ag108
aS'100'
p123
aS'20'
p124
aS'0.5'
p125
asba(imotionProgram
motionProgram
p126
(dp127
g104
(lp128
S'50.8TOOL'
p129
ag107
ag107
ag107
ag107
ag108
aS'100'
p130
aS'20'
p131
aS'0.5'
p132
asba(imotionProgram
motionProgram
p133
(dp134
g104
(lp135
S'50.8TOOL'
p136
ag107
ag107
ag107
ag107
ag108
aS'100'
p137
aS'20'
p138
aS'0.5'
p139
asba(imotionProgram
motionProgram
p140
(dp141
g104
(lp142
S'50.8TOOL'
p143
ag107
ag107
ag107
ag107
ag108
aS'100'
p144
aS'20'
p145
aS'0.5'
p146
asba(imotionProgram
motionProgram
p147
(dp148
g104
(lp149
S'50.8TOOL'
p150
ag107
ag107
ag107
ag107
ag108
aS'100'
p151
aS'20'
p152
aS'0.5'
p153
asba(imotionProgram
motionProgram
p154
(dp155
g104
(lp156
g37
ag38
ag39
ag40
ag41
ag42
ag43
ag44
ag45
asba(imotionProgram
motionProgram
p157
(dp158
g104
(lp159
S'76 copy test'
p160
aS'75'
p161
ag107
aS'15'
p162
aS'50'
p163
aS'0.5'
p164
aS'78'
p165
aS'45'
p166
aS'0.5'
p167
asbas.