(dp0
S'currentIndex'
p1
I0
sS'programs'
p2
(lp3
(imotionProgram
motionProgram
p4
(dp5
S'program'
p6
(lp7
S'Default Program'
p8
aS'90'
p9
aS'0'
p10
ag10
aS'50'
p11
aS'1'
p12
aS'25'
p13
aS'5'
p14
aS'0.5'
p15
asba(imotionProgram
motionProgram
p16
(dp17
S'program'
p18
(lp19
S'Default Program'
p20
aI90
aI0
aI0
aI50
aI1
aI25
aI5
aF0.5
asba(imotionProgram
motionProgram
p21
(dp22
g18
(lp23
S'another edit'
p24
aS'90'
p25
aS'0'
p26
ag26
aS'50'
p27
aS'1'
p28
aS'25'
p29
aS'5'
p30
aS'0.5'
p31
asbas.