(dp0
S'currentIndex'
p1
I4
sS'language'
p2
S''
p3
sS'programs'
p4
(lp5
(imotionProgram
motionProgram
p6
(dp7
S'program'
p8
(lp9
S'390XXXXX / 60mm / 1.5mm'
p10
aS'34.5'
p11
aS'5.0'
p12
aS'7.9'
p13
aS'50.0'
p14
aS'1.0'
p15
aS'47.0'
p16
aS'20.0'
p17
aS'0.5'
p18
aS'0.0'
p19
asba(imotionProgram
motionProgram
p20
(dp21
S'program'
p22
(lp23
S'F08018 / 101.6mm / 1.5mm'
p24
aS'34.05'
p25
aS'0.0'
p26
aS'21.0'
p27
aS'60.0'
p28
aS'2.0'
p29
aS'29.0'
p30
aS'0.0'
p31
aS'0.8'
p32
aS'100.0'
p33
asba(imotionProgram
motionProgram
p34
(dp35
S'program'
p36
(lp37
S'37188410 / 50.8mm / 1.5MM'
p38
aS'4.5'
p39
aS'0.0'
p40
aS'3.0'
p41
aS'50.0'
p42
aS'0.5'
p43
aS'15.0'
p44
aS'20.0'
p45
aS'0.35'
p46
aS'0.0'
p47
asba(imotionProgram
motionProgram
p48
(dp49
g36
(lp50
S'ACV000390 / 76MM / 1.5MM'
p51
aS'34.5'
p52
aS'13.0'
p53
aS'16.0'
p54
aS'60.0'
p55
aS'1.5'
p56
aS'45.0'
p57
aS'22.0'
p58
aS'0.5'
p59
aS'0.0'
p60
asba(imotionProgram
motionProgram
p61
(dp62
g36
(lp63
S'37166400 / 40MM / 1.5MM'
p64
aS'0.0'
p65
aS'4.0'
p66
aS'6.0'
p67
aS'50.0'
p68
aS'1.0'
p69
aS'25.0'
p70
aS'15.0'
p71
aS'0.5'
p72
aS'0.0'
p73
asbas.