(dp0
S'currentIndex'
p1
I3
sS'language'
p2
S''
p3
sS'programs'
p4
(lp5
(imotionProgram
motionProgram
p6
(dp7
S'program'
p8
(lp9
S'ACV0005390 / 76mm / 1.5mm'
p10
aS'34.5'
p11
aS'13.5'
p12
aS'15.65'
p13
aS'15.0'
p14
aS'1.0'
p15
aS'50.0'
p16
aS'17.0'
p17
aS'0.5'
p18
aS'0.0'
p19
asba(imotionProgram
motionProgram
p20
(dp21
S'program'
p22
(lp23
S'37188410 / 50.8mm'
p24
aS'4.5'
p25
aS'0.0'
p26
aS'3.0'
p27
aS'50.0'
p28
aS'0.5'
p29
aS'20.0'
p30
aS'20.0'
p31
aS'0.5'
p32
aS'0.0'
p33
asba(imotionProgram
motionProgram
p34
(dp35
S'program'
p36
(lp37
S'390XXXXX / 60mm / 1.5mm'
p38
aS'34.5'
p39
aS'5.0'
p40
aS'7.6'
p41
aS'50.0'
p42
aS'1.0'
p43
aS'55.0'
p44
aS'20.0'
p45
aS'0.5'
p46
aS'0.0'
p47
asba(imotionProgram
motionProgram
p48
(dp49
S'program'
p50
(lp51
S'F08018 / 101.6mm / 1.5mm'
p52
aS'34.05'
p53
aS'0.0'
p54
aS'20.3'
p55
aS'50.0'
p56
aS'1.0'
p57
aS'25.0'
p58
aS'0.0'
p59
aS'0.5'
p60
aS'0.0'
p61
asba(imotionProgram
motionProgram
p62
(dp63
g50
(lp64
S'76 copy test'
p65
aS'75.0'
p66
aS'0.0'
p67
aS'15.0'
p68
aS'50.0'
p69
aS'0.5'
p70
aS'78.0'
p71
aS'45.0'
p72
aS'0.5'
p73
aS'0.0'
p74
asba(imotionProgram
motionProgram
p75
(dp76
S'program'
p77
(lp78
S'F08018 / 101.6mm / 1.5mm COPY'
p79
aS'34.05'
p80
aS'0.0'
p81
aS'21.0'
p82
aS'60.0'
p83
aS'2.0'
p84
aS'29.0'
p85
aS'0.0'
p86
aS'0.5'
p87
aS'100.0'
p88
asba(imotionProgram
motionProgram
p89
(dp90
S'program'
p91
(lp92
S'F08018 / 101.6mm / 1.5mm COPY FOR TESTING'
p93
aS'34.05'
p94
aS'0.0'
p95
aS'21.0'
p96
aS'60.0'
p97
aS'2.0'
p98
aS'29.0'
p99
aS'0.0'
p100
aS'0.5'
p101
aS'100.0'
p102
asbas.