(dp0
S'currentIndex'
p1
I4
sS'programs'
p2
(lp3
(imotionProgram
motionProgram
p4
(dp5
S'program'
p6
(lp7
S'Default Program'
p8
aS'90'
p9
aS'0'
p10
ag10
aS'50'
p11
aS'1'
p12
aS'25'
p13
aS'5'
p14
aS'0.5'
p15
asba(imotionProgram
motionProgram
p16
(dp17
S'program'
p18
(lp19
S'Default Program'
p20
aI90
aI0
aI0
aI50
aI1
aI25
aI5
aF0.5
asba(imotionProgram
motionProgram
p21
(dp22
g18
(lp23
S'76mm tool'
p24
aS'34.25'
p25
aS'12.5'
p26
aS'15.65'
p27
aS'15'
p28
aS'1'
p29
aS'48.5'
p30
aS'23'
p31
aS'0.5'
p32
asba(imotionProgram
motionProgram
p33
(dp34
S'program'
p35
(lp36
S'76 copy test'
p37
aS'37'
p38
aS'11'
p39
aS'15'
p40
aS'15'
p41
aS'1'
p42
aS'37'
p43
aS'19'
p44
aS'0.5'
p45
asba(imotionProgram
motionProgram
p46
(dp47
S'program'
p48
(lp49
S'extreme test'
p50
aS'5'
p51
ag51
aS'24.5'
p52
aS'75'
p53
aS'1'
p54
aS'50'
p55
aS'23'
p56
aS'0.15'
p57
asbas.